; Function Attrs: nounwind uwtable
define hidden range(i32 0, 2) i32 @SHA256_Final(ptr noundef writeonly captures(none) %0, ptr noundef %1) local_unnamed_addr #2 {
  %3 = getelementptr inbounds nuw i8, ptr %1, i64 104
  %4 = load i32, ptr %3, align 4, !tbaa !14
  %5 = zext i32 %4 to i64
  %6 = getelementptr inbounds nuw i8, ptr %1, i64 40
  %7 = getelementptr inbounds nuw [64 x i8], ptr %6, i64 0, i64 %5
  store i8 -128, ptr %7, align 1, !tbaa !15
  %8 = add nuw nsw i64 %5, 1
  %9 = icmp ugt i32 %4, 55
  br i1 %9, label %10, label %13

10:                                               ; preds = %2
  %11 = getelementptr inbounds nuw i8, ptr %6, i64 %8
  %12 = sub nsw i64 63, %5
  tail call void @llvm.memset.p0.i64(ptr nonnull align 1 %11, i8 0, i64 %12, i1 false)
  tail call void @sha256_block_data_order(ptr noundef nonnull %1, ptr noundef nonnull %6, i64 noundef 1) #6
  br label %13

13:                                               ; preds = %10, %2
  %.077 = phi i64 [ 0, %10 ], [ %8, %2 ]
  %14 = getelementptr inbounds nuw i8, ptr %6, i64 %.077
  %15 = sub nuw nsw i64 56, %.077
  tail call void @llvm.memset.p0.i64(ptr nonnull align 1 %14, i8 0, i64 %15, i1 false)
  %16 = getelementptr inbounds nuw i8, ptr %1, i64 96
  %17 = getelementptr inbounds nuw i8, ptr %1, i64 36
  %18 = load i32, ptr %17, align 4, !tbaa !12
  %19 = lshr i32 %18, 24
  %20 = trunc nuw i32 %19 to i8
  %21 = getelementptr inbounds nuw i8, ptr %1, i64 97
  store i8 %20, ptr %16, align 1, !tbaa !15
  %22 = lshr i32 %18, 16
  %23 = trunc i32 %22 to i8
  %24 = getelementptr inbounds nuw i8, ptr %1, i64 98
  store i8 %23, ptr %21, align 1, !tbaa !15
  %25 = lshr i32 %18, 8
  %26 = trunc i32 %25 to i8
  %27 = getelementptr inbounds nuw i8, ptr %1, i64 99
  store i8 %26, ptr %24, align 1, !tbaa !15
  %28 = trunc i32 %18 to i8
  %29 = getelementptr inbounds nuw i8, ptr %1, i64 100
  store i8 %28, ptr %27, align 1, !tbaa !15
  %30 = getelementptr inbounds nuw i8, ptr %1, i64 32
  %31 = load i32, ptr %30, align 4, !tbaa !13
  %32 = lshr i32 %31, 24
  %33 = trunc nuw i32 %32 to i8
  %34 = getelementptr inbounds nuw i8, ptr %1, i64 101
  store i8 %33, ptr %29, align 1, !tbaa !15
  %35 = lshr i32 %31, 16
  %36 = trunc i32 %35 to i8
  %37 = getelementptr inbounds nuw i8, ptr %1, i64 102
  store i8 %36, ptr %34, align 1, !tbaa !15
  %38 = lshr i32 %31, 8
  %39 = trunc i32 %38 to i8
  %40 = getelementptr inbounds nuw i8, ptr %1, i64 103
  store i8 %39, ptr %37, align 1, !tbaa !15
  %41 = trunc i32 %31 to i8
  store i8 %41, ptr %40, align 1, !tbaa !15
  tail call void @sha256_block_data_order(ptr noundef nonnull %1, ptr noundef nonnull %6, i64 noundef 1) #6
  %42 = getelementptr inbounds nuw i8, ptr %1, i64 108
  tail call void @llvm.memset.p0.i64(ptr noundef nonnull align 4 dereferenceable(68) %6, i8 0, i64 68, i1 false)
  %43 = load i32, ptr %42, align 4, !tbaa !10
  switch i32 %43, label %70 [
    i32 28, label %.preheader84
    i32 32, label %.preheader86
  ]

.preheader84:                                     ; preds = %13, %.preheader84
  %indvars.iv97 = phi i64 [ %indvars.iv.next98, %.preheader84 ], [ 0, %13 ]
  %.07890 = phi ptr [ %56, %.preheader84 ], [ %0, %13 ]
  %44 = getelementptr inbounds nuw [8 x i32], ptr %1, i64 0, i64 %indvars.iv97
  %45 = load i32, ptr %44, align 4, !tbaa !6
  %46 = lshr i32 %45, 24
  %47 = trunc nuw i32 %46 to i8
  %48 = getelementptr inbounds nuw i8, ptr %.07890, i64 1
  store i8 %47, ptr %.07890, align 1, !tbaa !15
  %49 = lshr i32 %45, 16
  %50 = trunc i32 %49 to i8
  %51 = getelementptr inbounds nuw i8, ptr %.07890, i64 2
  store i8 %50, ptr %48, align 1, !tbaa !15
  %52 = lshr i32 %45, 8
  %53 = trunc i32 %52 to i8
  %54 = getelementptr inbounds nuw i8, ptr %.07890, i64 3
  store i8 %53, ptr %51, align 1, !tbaa !15
  %55 = trunc i32 %45 to i8
  %56 = getelementptr inbounds nuw i8, ptr %.07890, i64 4
  store i8 %55, ptr %54, align 1, !tbaa !15
  %indvars.iv.next98 = add nuw nsw i64 %indvars.iv97, 1
  %exitcond100.not = icmp eq i64 %indvars.iv.next98, 7
  br i1 %exitcond100.not, label %.loopexit, label %.preheader84, !llvm.loop !16

.preheader86:                                     ; preds = %13, %.preheader86
  %indvars.iv = phi i64 [ %indvars.iv.next, %.preheader86 ], [ 0, %13 ]
  %.17988 = phi ptr [ %69, %.preheader86 ], [ %0, %13 ]
  %57 = getelementptr inbounds nuw [8 x i32], ptr %1, i64 0, i64 %indvars.iv
  %58 = load i32, ptr %57, align 4, !tbaa !6
  %59 = lshr i32 %58, 24
  %60 = trunc nuw i32 %59 to i8
  %61 = getelementptr inbounds nuw i8, ptr %.17988, i64 1
  store i8 %60, ptr %.17988, align 1, !tbaa !15
  %62 = lshr i32 %58, 16
  %63 = trunc i32 %62 to i8
  %64 = getelementptr inbounds nuw i8, ptr %.17988, i64 2
  store i8 %63, ptr %61, align 1, !tbaa !15
  %65 = lshr i32 %58, 8
  %66 = trunc i32 %65 to i8
  %67 = getelementptr inbounds nuw i8, ptr %.17988, i64 3
  store i8 %66, ptr %64, align 1, !tbaa !15
  %68 = trunc i32 %58 to i8
  %69 = getelementptr inbounds nuw i8, ptr %.17988, i64 4
  store i8 %68, ptr %67, align 1, !tbaa !15
  %indvars.iv.next = add nuw nsw i64 %indvars.iv, 1
  %exitcond.not = icmp eq i64 %indvars.iv.next, 8
  br i1 %exitcond.not, label %.loopexit, label %.preheader86, !llvm.loop !18

70:                                               ; preds = %13
  %71 = icmp ugt i32 %43, 32
  br i1 %71, label %.loopexit, label %.preheader

.preheader:                                       ; preds = %70
  %.not = icmp samesign ult i32 %43, 4
  br i1 %.not, label %.loopexit, label %.lr.ph

.lr.ph:                                           ; preds = %.preheader, %.lr.ph
  %indvars.iv101 = phi i64 [ %indvars.iv.next102, %.lr.ph ], [ 0, %.preheader ]
  %.28092 = phi ptr [ %84, %.lr.ph ], [ %0, %.preheader ]
  %72 = getelementptr inbounds nuw [8 x i32], ptr %1, i64 0, i64 %indvars.iv101
  %73 = load i32, ptr %72, align 4, !tbaa !6
  %74 = lshr i32 %73, 24
  %75 = trunc nuw i32 %74 to i8
  %76 = getelementptr inbounds nuw i8, ptr %.28092, i64 1
  store i8 %75, ptr %.28092, align 1, !tbaa !15
  %77 = lshr i32 %73, 16
  %78 = trunc i32 %77 to i8
  %79 = getelementptr inbounds nuw i8, ptr %.28092, i64 2
  store i8 %78, ptr %76, align 1, !tbaa !15
  %80 = lshr i32 %73, 8
  %81 = trunc i32 %80 to i8
  %82 = getelementptr inbounds nuw i8, ptr %.28092, i64 3
  store i8 %81, ptr %79, align 1, !tbaa !15
  %83 = trunc i32 %73 to i8
  %84 = getelementptr inbounds nuw i8, ptr %.28092, i64 4
  store i8 %83, ptr %82, align 1, !tbaa !15
  %indvars.iv.next102 = add nuw nsw i64 %indvars.iv101, 1
  %85 = load i32, ptr %42, align 4, !tbaa !10
  %86 = lshr i32 %85, 2
  %87 = zext nneg i32 %86 to i64
  %88 = icmp samesign ult i64 %indvars.iv.next102, %87
  br i1 %88, label %.lr.ph, label %.loopexit, !llvm.loop !19

.loopexit:                                        ; preds = %.preheader86, %.preheader84, %.lr.ph, %.preheader, %70
  %89 = phi i32 [ 0, %70 ], [ 1, %.preheader ], [ 1, %.lr.ph ], [ 1, %.preheader84 ], [ 1, %.preheader86 ]
  ret i32 %89
}